target datalayout = "e-m:e-p270:32:32-p271:32:32-p272:64:64-i64:64-i128:128-f80:128-n8:16:32:64-S128"
target triple = "x86_64-pc-linux-gnu"

@the_repository = external global ptr, align 8
@.str.196 = private unnamed_addr constant [12 x i8] c"refs/heads/\00", align 1
@.str.215 = private unnamed_addr constant [41 x i8] c"your current branch appears to be broken\00", align 1
@.str.216 = private unnamed_addr constant [55 x i8] c"your current branch '%s' does not have any commits yet\00", align 1

; Function Attrs: inlinehint nounwind uwtable
define internal zeroext i1 @skip_prefix(ptr noundef %0, ptr noundef %1, ptr noundef %2) #4 {
  %4 = alloca i1, align 1
  %5 = alloca ptr, align 8
  %6 = alloca ptr, align 8
  %7 = alloca ptr, align 8
  store ptr %0, ptr %5, align 8, !tbaa !39
  store ptr %1, ptr %6, align 8, !tbaa !39
  store ptr %2, ptr %7, align 8, !tbaa !17
  br label %8

8:                                                ; preds = %16, %3
  %9 = load ptr, ptr %6, align 8, !tbaa !39
  %10 = load i8, ptr %9, align 1, !tbaa !41
  %11 = icmp ne i8 %10, 0
  br i1 %11, label %15, label %12

12:                                               ; preds = %8
  %13 = load ptr, ptr %5, align 8, !tbaa !39
  %14 = load ptr, ptr %7, align 8, !tbaa !17
  store ptr %13, ptr %14, align 8, !tbaa !39
  store i1 true, ptr %4, align 1
  br label %27

15:                                               ; preds = %8
  br label %16

16:                                               ; preds = %15
  %17 = load ptr, ptr %5, align 8, !tbaa !39
  %18 = getelementptr inbounds nuw i8, ptr %17, i32 1
  store ptr %18, ptr %5, align 8, !tbaa !39
  %19 = load i8, ptr %17, align 1, !tbaa !41
  %20 = sext i8 %19 to i32
  %21 = load ptr, ptr %6, align 8, !tbaa !39
  %22 = getelementptr inbounds nuw i8, ptr %21, i32 1
  store ptr %22, ptr %6, align 8, !tbaa !39
  %23 = load i8, ptr %21, align 1, !tbaa !41
  %24 = sext i8 %23 to i32
  %25 = icmp eq i32 %20, %24
  br i1 %25, label %8, label %26, !llvm.loop !428

26:                                               ; preds = %16
  store i1 false, ptr %4, align 1
  br label %27

27:                                               ; preds = %26, %12
  %28 = load i1, ptr %4, align 1
  ret i1 %28
}

; Function Attrs: noreturn nounwind uwtable
define internal void @diagnose_missing_default(ptr noundef %0) #10 {
  %2 = alloca ptr, align 8
  %3 = alloca i32, align 4
  %4 = alloca ptr, align 8
  store ptr %0, ptr %2, align 8, !tbaa !39
  call void @llvm.lifetime.start.p0(i64 4, ptr %3) #12
  call void @llvm.lifetime.start.p0(i64 8, ptr %4) #12
  %5 = load ptr, ptr @the_repository, align 8, !tbaa !43
  %6 = call ptr @get_main_ref_store(ptr noundef %5)
  %7 = load ptr, ptr %2, align 8, !tbaa !39
  %8 = call ptr @refs_resolve_ref_unsafe(ptr noundef %6, ptr noundef %7, i32 noundef 0, ptr noundef null, ptr noundef %3)
  store ptr %8, ptr %4, align 8, !tbaa !39
  %9 = load ptr, ptr %4, align 8, !tbaa !39
  %10 = icmp ne ptr %9, null
  br i1 %10, label %11, label %19

11:                                               ; preds = %1
  %12 = load i32, ptr %3, align 4, !tbaa !9
  %13 = and i32 %12, 1
  %14 = icmp ne i32 %13, 0
  br i1 %14, label %15, label %19

15:                                               ; preds = %11
  %16 = load i32, ptr %3, align 4, !tbaa !9
  %17 = and i32 %16, 4
  %18 = icmp ne i32 %17, 0
  br i1 %18, label %19, label %21

19:                                               ; preds = %15, %11, %1
  %20 = call ptr @_(ptr noundef @.str.215)
  call void (ptr, ...) @die(ptr noundef %20) #13
  unreachable

21:                                               ; preds = %15
  %22 = load ptr, ptr %4, align 8, !tbaa !39
  %23 = call zeroext i1 @skip_prefix(ptr noundef %22, ptr noundef @.str.196, ptr noundef %4)
  %24 = call ptr @_(ptr noundef @.str.216)
  %25 = load ptr, ptr %4, align 8, !tbaa !39
  call void (ptr, ...) @die(ptr noundef %24, ptr noundef %25) #13
  unreachable
}