; Function Attrs: noreturn nounwind uwtable
define internal fastcc void @diagnose_missing_default(ptr noundef %0) unnamed_addr #17 {
  %2 = alloca i32, align 4
  call void @llvm.lifetime.start.p0(i64 4, ptr nonnull %2) #26
  %3 = load ptr, ptr @the_repository, align 8, !tbaa !71
  %4 = tail call ptr @get_main_ref_store(ptr noundef %3) #26
  %5 = call ptr @refs_resolve_ref_unsafe(ptr noundef %4, ptr noundef %0, i32 noundef 0, ptr noundef null, ptr noundef nonnull %2) #26
  %.not = icmp eq ptr %5, null
  br i1 %.not, label %9, label %6

6:                                                ; preds = %1
  %7 = load i32, ptr %2, align 4, !tbaa !42
  %8 = and i32 %7, 5
  %or.cond = icmp eq i32 %8, 1
  br i1 %or.cond, label %.preheader.preheader, label %9

.preheader.preheader:                             ; preds = %6
  %scevgep = getelementptr i8, ptr %5, i64 11
  br label %.preheader

9:                                                ; preds = %6, %1
  %10 = call fastcc ptr @_(ptr noundef nonnull @.str.215)
  call void (ptr, ...) @die(ptr noundef %10) #28
  unreachable

.preheader:                                       ; preds = %.preheader.preheader, %11
  %.07.i = phi ptr [ %13, %11 ], [ %5, %.preheader.preheader ]
  %.06.i.idx = phi i64 [ %.06.i.add, %11 ], [ 0, %.preheader.preheader ]
  %exitcond = icmp eq i64 %.06.i.idx, 11
  br i1 %exitcond, label %skip_prefix.exit, label %11

11:                                               ; preds = %.preheader
  %.06.i.ptr = getelementptr inbounds nuw i8, ptr @.str.196, i64 %.06.i.idx
  %12 = load i8, ptr %.06.i.ptr, align 1, !tbaa !28
  %13 = getelementptr inbounds nuw i8, ptr %.07.i, i64 1
  %14 = load i8, ptr %.07.i, align 1, !tbaa !28
  %.06.i.add = add nuw nsw i64 %.06.i.idx, 1
  %15 = icmp eq i8 %14, %12
  br i1 %15, label %.preheader, label %skip_prefix.exit, !llvm.loop !212

skip_prefix.exit:                                 ; preds = %.preheader, %11
  %.0 = phi ptr [ %5, %11 ], [ %scevgep, %.preheader ]
  %16 = call fastcc ptr @_(ptr noundef nonnull @.str.216)
  call void (ptr, ...) @die(ptr noundef %16, ptr noundef %.0) #28
  unreachable
}